target datalayout = "e-m:e-p270:32:32-p271:32:32-p272:64:64-i64:64-i128:128-f80:128-n8:16:32:64-S128"
target triple = "x86_64-pc-linux-gnu"

%struct._generic_ARKInterp = type { ptr, ptr }
%struct._generic_ARKInterpOps = type { ptr, ptr, ptr, ptr, ptr, ptr, ptr }

; Function Attrs: nounwind uwtable
define void @arkInterpPrintMem(ptr noundef %0, ptr noundef %1) #0 {
  %3 = alloca ptr, align 8
  %4 = alloca ptr, align 8
  store ptr %0, ptr %3, align 8, !tbaa !8
  store ptr %1, ptr %4, align 8, !tbaa !21
  %5 = load ptr, ptr %3, align 8, !tbaa !8
  %6 = icmp eq ptr %5, null
  br i1 %6, label %7, label %8

7:                                                ; preds = %2
  br label %16

8:                                                ; preds = %2
  %9 = load ptr, ptr %3, align 8, !tbaa !8
  %10 = getelementptr inbounds nuw %struct._generic_ARKInterp, ptr %9, i32 0, i32 1
  %11 = load ptr, ptr %10, align 8, !tbaa !15
  %12 = getelementptr inbounds nuw %struct._generic_ARKInterpOps, ptr %11, i32 0, i32 2
  %13 = load ptr, ptr %12, align 8, !tbaa !23
  %14 = load ptr, ptr %3, align 8, !tbaa !8
  %15 = load ptr, ptr %4, align 8, !tbaa !21
  call void %13(ptr noundef %14, ptr noundef %15)
  br label %16

16:                                               ; preds = %8, %7
  ret void
}