; Function Attrs: nounwind uwtable
define void @arkInterpPrintMem(ptr noundef %0, ptr noundef %1) local_unnamed_addr #0 {
  %3 = icmp eq ptr %0, null
  br i1 %3, label %9, label %4

4:                                                ; preds = %2
  %5 = getelementptr inbounds nuw i8, ptr %0, i64 8
  %6 = load ptr, ptr %5, align 8, !tbaa !3
  %7 = getelementptr inbounds nuw i8, ptr %6, i64 16
  %8 = load ptr, ptr %7, align 8, !tbaa !12
  tail call void %8(ptr noundef nonnull %0, ptr noundef %1) #14
  br label %9

9:                                                ; preds = %2, %4
  ret void
}